target datalayout = "e-m:e-p270:32:32-p271:32:32-p272:64:64-i64:64-i128:128-f80:128-n8:16:32:64-S128"
target triple = "x86_64-pc-linux-gnu"

; Function Attrs: nounwind uwtable
define internal i32 @ccm_auth_crypt(ptr noundef %0, i32 noundef %1, i64 noundef %2, ptr noundef %3, i64 noundef %4, ptr noundef %5, i64 noundef %6, ptr noundef %7, ptr noundef %8, ptr noundef %9, i64 noundef %10) #0 {
  %12 = alloca i32, align 4
  %13 = alloca ptr, align 8
  %14 = alloca i32, align 4
  %15 = alloca i64, align 8
  %16 = alloca ptr, align 8
  %17 = alloca i64, align 8
  %18 = alloca ptr, align 8
  %19 = alloca i64, align 8
  %20 = alloca ptr, align 8
  %21 = alloca ptr, align 8
  %22 = alloca ptr, align 8
  %23 = alloca i64, align 8
  %24 = alloca i32, align 4
  %25 = alloca i64, align 8
  %26 = alloca i32, align 4
  store ptr %0, ptr %13, align 8, !tbaa !3
  store i32 %1, ptr %14, align 4, !tbaa !8
  store i64 %2, ptr %15, align 8, !tbaa !14
  store ptr %3, ptr %16, align 8, !tbaa !10
  store i64 %4, ptr %17, align 8, !tbaa !14
  store ptr %5, ptr %18, align 8, !tbaa !10
  store i64 %6, ptr %19, align 8, !tbaa !14
  store ptr %7, ptr %20, align 8, !tbaa !10
  store ptr %8, ptr %21, align 8, !tbaa !10
  store ptr %9, ptr %22, align 8, !tbaa !10
  store i64 %10, ptr %23, align 8, !tbaa !14
  call void @llvm.lifetime.start.p0(i64 4, ptr %24) #8
  store i32 -110, ptr %24, align 4, !tbaa !8
  call void @llvm.lifetime.start.p0(i64 8, ptr %25) #8
  %27 = load ptr, ptr %13, align 8, !tbaa !3
  %28 = load i32, ptr %14, align 4, !tbaa !8
  %29 = load ptr, ptr %16, align 8, !tbaa !10
  %30 = load i64, ptr %17, align 8, !tbaa !14
  %31 = call i32 @mbedtls_ccm_starts(ptr noundef %27, i32 noundef %28, ptr noundef %29, i64 noundef %30)
  store i32 %31, ptr %24, align 4, !tbaa !8
  %32 = icmp ne i32 %31, 0
  br i1 %32, label %33, label %35

33:                                               ; preds = %11
  %34 = load i32, ptr %24, align 4, !tbaa !8
  store i32 %34, ptr %12, align 4
  store i32 1, ptr %26, align 4
  br label %71

35:                                               ; preds = %11
  %36 = load ptr, ptr %13, align 8, !tbaa !3
  %37 = load i64, ptr %19, align 8, !tbaa !14
  %38 = load i64, ptr %15, align 8, !tbaa !14
  %39 = load i64, ptr %23, align 8, !tbaa !14
  %40 = call i32 @mbedtls_ccm_set_lengths(ptr noundef %36, i64 noundef %37, i64 noundef %38, i64 noundef %39)
  store i32 %40, ptr %24, align 4, !tbaa !8
  %41 = icmp ne i32 %40, 0
  br i1 %41, label %42, label %44

42:                                               ; preds = %35
  %43 = load i32, ptr %24, align 4, !tbaa !8
  store i32 %43, ptr %12, align 4
  store i32 1, ptr %26, align 4
  br label %71

44:                                               ; preds = %35
  %45 = load ptr, ptr %13, align 8, !tbaa !3
  %46 = load ptr, ptr %18, align 8, !tbaa !10
  %47 = load i64, ptr %19, align 8, !tbaa !14
  %48 = call i32 @mbedtls_ccm_update_ad(ptr noundef %45, ptr noundef %46, i64 noundef %47)
  store i32 %48, ptr %24, align 4, !tbaa !8
  %49 = icmp ne i32 %48, 0
  br i1 %49, label %50, label %52

50:                                               ; preds = %44
  %51 = load i32, ptr %24, align 4, !tbaa !8
  store i32 %51, ptr %12, align 4
  store i32 1, ptr %26, align 4
  br label %71

52:                                               ; preds = %44
  %53 = load ptr, ptr %13, align 8, !tbaa !3
  %54 = load ptr, ptr %20, align 8, !tbaa !10
  %55 = load i64, ptr %15, align 8, !tbaa !14
  %56 = load ptr, ptr %21, align 8, !tbaa !10
  %57 = load i64, ptr %15, align 8, !tbaa !14
  %58 = call i32 @mbedtls_ccm_update(ptr noundef %53, ptr noundef %54, i64 noundef %55, ptr noundef %56, i64 noundef %57, ptr noundef %25)
  store i32 %58, ptr %24, align 4, !tbaa !8
  %59 = icmp ne i32 %58, 0
  br i1 %59, label %60, label %62

60:                                               ; preds = %52
  %61 = load i32, ptr %24, align 4, !tbaa !8
  store i32 %61, ptr %12, align 4
  store i32 1, ptr %26, align 4
  br label %71

62:                                               ; preds = %52
  %63 = load ptr, ptr %13, align 8, !tbaa !3
  %64 = load ptr, ptr %22, align 8, !tbaa !10
  %65 = load i64, ptr %23, align 8, !tbaa !14
  %66 = call i32 @mbedtls_ccm_finish(ptr noundef %63, ptr noundef %64, i64 noundef %65)
  store i32 %66, ptr %24, align 4, !tbaa !8
  %67 = icmp ne i32 %66, 0
  br i1 %67, label %68, label %70

68:                                               ; preds = %62
  %69 = load i32, ptr %24, align 4, !tbaa !8
  store i32 %69, ptr %12, align 4
  store i32 1, ptr %26, align 4
  br label %71

70:                                               ; preds = %62
  store i32 0, ptr %12, align 4
  store i32 1, ptr %26, align 4
  br label %71

71:                                               ; preds = %70, %68, %60, %50, %42, %33
  call void @llvm.lifetime.end.p0(i64 8, ptr %25) #8
  call void @llvm.lifetime.end.p0(i64 4, ptr %24) #8
  %72 = load i32, ptr %12, align 4
  ret i32 %72
}

; Function Attrs: nounwind uwtable
define hidden i32 @mbedtls_ccm_star_encrypt_and_tag(ptr noundef %0, i64 noundef %1, ptr noundef %2, i64 noundef %3, ptr noundef %4, i64 noundef %5, ptr noundef %6, ptr noundef %7, ptr noundef %8, i64 noundef %9) #0 {
  %11 = alloca ptr, align 8
  %12 = alloca i64, align 8
  %13 = alloca ptr, align 8
  %14 = alloca i64, align 8
  %15 = alloca ptr, align 8
  %16 = alloca i64, align 8
  %17 = alloca ptr, align 8
  %18 = alloca ptr, align 8
  %19 = alloca ptr, align 8
  %20 = alloca i64, align 8
  store ptr %0, ptr %11, align 8, !tbaa !3
  store i64 %1, ptr %12, align 8, !tbaa !14
  store ptr %2, ptr %13, align 8, !tbaa !10
  store i64 %3, ptr %14, align 8, !tbaa !14
  store ptr %4, ptr %15, align 8, !tbaa !10
  store i64 %5, ptr %16, align 8, !tbaa !14
  store ptr %6, ptr %17, align 8, !tbaa !10
  store ptr %7, ptr %18, align 8, !tbaa !10
  store ptr %8, ptr %19, align 8, !tbaa !10
  store i64 %9, ptr %20, align 8, !tbaa !14
  %21 = load ptr, ptr %11, align 8, !tbaa !3
  %22 = load i64, ptr %12, align 8, !tbaa !14
  %23 = load ptr, ptr %13, align 8, !tbaa !10
  %24 = load i64, ptr %14, align 8, !tbaa !14
  %25 = load ptr, ptr %15, align 8, !tbaa !10
  %26 = load i64, ptr %16, align 8, !tbaa !14
  %27 = load ptr, ptr %17, align 8, !tbaa !10
  %28 = load ptr, ptr %18, align 8, !tbaa !10
  %29 = load ptr, ptr %19, align 8, !tbaa !10
  %30 = load i64, ptr %20, align 8, !tbaa !14
  %31 = call i32 @ccm_auth_crypt(ptr noundef %21, i32 noundef 3, i64 noundef %22, ptr noundef %23, i64 noundef %24, ptr noundef %25, i64 noundef %26, ptr noundef %27, ptr noundef %28, ptr noundef %29, i64 noundef %30)
  ret i32 %31
}